target datalayout = "e-m:e-p270:32:32-p271:32:32-p272:64:64-i64:64-i128:128-f80:128-n8:16:32:64-S128"
target triple = "x86_64-unknown-linux-gnu"

%struct.hlist_head = type { ptr }

@.str.1 = private unnamed_addr constant [20 x i8] c"net/sched/sch_api.c\00", align 1
@.str.3 = private unnamed_addr constant [35 x i8] c"RTNL: assertion failed at %s (%d)\0A\00", align 1
@__nlmsg_parse.__msg = internal constant [22 x i8] c"Invalid header length\00", align 16
@tc_dump_qdisc.__already_done = internal unnamed_addr global i1 false, section ".data.once", align 1

; Function Attrs: fn_ret_thunk_extern nounwind null_pointer_is_valid
define internal fastcc noundef i32 @tc_dump_qdisc_root(ptr noundef %0, ptr noundef %1, ptr nocapture noundef readonly %2, ptr nocapture noundef %3, i32 noundef %4, i1 noundef zeroext %5, i1 noundef zeroext %6) unnamed_addr #0 align 16 {
  %8 = load i32, ptr %3, align 4
  %9 = icmp eq ptr %0, null
  br i1 %9, label %93, label %10

10:                                               ; preds = %7
  %11 = icmp slt i32 %8, %4
  br i1 %11, label %33, label %12

12:                                               ; preds = %10
  %13 = getelementptr inbounds i8, ptr %0, i64 16
  %14 = load i32, ptr %13, align 16
  %15 = and i32 %14, 1
  %16 = icmp eq i32 %15, 0
  %17 = and i32 %14, 128
  %18 = icmp eq i32 %17, 0
  %19 = or i1 %18, %6
  %20 = and i1 %16, %19
  br i1 %20, label %21, label %33

21:                                               ; preds = %12
  %22 = getelementptr inbounds i8, ptr %0, i64 60
  %23 = load i32, ptr %22, align 4
  %24 = load ptr, ptr %2, align 8
  %25 = getelementptr inbounds i8, ptr %24, i64 52
  %26 = load i32, ptr %25, align 4
  %27 = getelementptr inbounds i8, ptr %2, i64 8
  %28 = load ptr, ptr %27, align 8
  %29 = getelementptr inbounds i8, ptr %28, i64 8
  %30 = load i32, ptr %29, align 4
  %31 = tail call fastcc i32 @tc_fill_qdisc(ptr noundef %1, ptr noundef nonnull %0, i32 noundef %23, i32 noundef %26, i32 noundef %30, i16 noundef zeroext 2, i32 noundef 36, ptr noundef null)
  %32 = icmp slt i32 %31, 1
  br i1 %32, label %90, label %33

33:                                               ; preds = %21, %12, %10
  %34 = add i32 %8, 1
  %35 = getelementptr inbounds i8, ptr %0, i64 64
  %36 = load ptr, ptr %35, align 64
  %37 = load ptr, ptr %36, align 64
  %38 = icmp ne ptr %37, null
  %39 = and i1 %38, %5
  br i1 %39, label %40, label %90

40:                                               ; preds = %33
  %41 = getelementptr inbounds i8, ptr %2, i64 8
  br label %42

42:                                               ; preds = %86, %40
  %43 = phi i64 [ 0, %40 ], [ %88, %86 ]
  %44 = phi i32 [ %34, %40 ], [ %87, %86 ]
  %45 = load ptr, ptr %35, align 64
  %46 = load ptr, ptr %45, align 64
  %47 = getelementptr inbounds i8, ptr %46, i64 1088
  %48 = getelementptr [16 x %struct.hlist_head], ptr %47, i64 0, i64 %43
  %49 = load ptr, ptr %48, align 8
  %50 = icmp eq ptr %49, null
  %51 = getelementptr i8, ptr %49, i64 -40
  %52 = icmp eq ptr %51, null
  %53 = or i1 %50, %52
  br i1 %53, label %86, label %54

54:                                               ; preds = %78, %42
  %55 = phi i32 [ %79, %78 ], [ %44, %42 ]
  %56 = phi ptr [ %84, %78 ], [ %51, %42 ]
  %57 = icmp slt i32 %55, %4
  br i1 %57, label %78, label %58

58:                                               ; preds = %54
  %59 = getelementptr inbounds i8, ptr %56, i64 16
  %60 = load i32, ptr %59, align 16
  %61 = and i32 %60, 1
  %62 = icmp eq i32 %61, 0
  %63 = and i32 %60, 128
  %64 = icmp eq i32 %63, 0
  %65 = or i1 %64, %6
  %66 = and i1 %62, %65
  br i1 %66, label %67, label %78

67:                                               ; preds = %58
  %68 = getelementptr inbounds i8, ptr %56, i64 60
  %69 = load i32, ptr %68, align 4
  %70 = load ptr, ptr %2, align 8
  %71 = getelementptr inbounds i8, ptr %70, i64 52
  %72 = load i32, ptr %71, align 4
  %73 = load ptr, ptr %41, align 8
  %74 = getelementptr inbounds i8, ptr %73, i64 8
  %75 = load i32, ptr %74, align 4
  %76 = tail call fastcc i32 @tc_fill_qdisc(ptr noundef %1, ptr noundef nonnull %56, i32 noundef %69, i32 noundef %72, i32 noundef %75, i16 noundef zeroext 2, i32 noundef 36, ptr noundef null)
  %77 = icmp slt i32 %76, 1
  br i1 %77, label %90, label %78

78:                                               ; preds = %67, %58, %54
  %79 = add i32 %55, 1
  %80 = getelementptr inbounds i8, ptr %56, i64 40
  %81 = load ptr, ptr %80, align 8
  %82 = icmp eq ptr %81, null
  %83 = getelementptr i8, ptr %81, i64 -40
  %84 = select i1 %82, ptr null, ptr %83
  %85 = icmp eq ptr %84, null
  br i1 %85, label %86, label %54, !llvm.loop !80

86:                                               ; preds = %78, %42
  %87 = phi i32 [ %44, %42 ], [ %79, %78 ]
  %88 = add nuw nsw i64 %43, 1
  %89 = icmp eq i64 %88, 16
  br i1 %89, label %90, label %42, !llvm.loop !81

90:                                               ; preds = %86, %67, %33, %21
  %91 = phi i32 [ %34, %33 ], [ %8, %21 ], [ %55, %67 ], [ %87, %86 ]
  %92 = phi i32 [ 0, %33 ], [ -1, %21 ], [ -1, %67 ], [ 0, %86 ]
  store i32 %91, ptr %3, align 4
  br label %93

93:                                               ; preds = %90, %7
  %94 = phi i32 [ %92, %90 ], [ 0, %7 ]
  ret i32 %94
}

; Function Attrs: fn_ret_thunk_extern nounwind null_pointer_is_valid
define internal i32 @tc_dump_qdisc(ptr noundef %0, ptr nocapture noundef %1) #0 align 16 {
  %3 = alloca i32, align 4
  %4 = alloca [17 x ptr], align 16
  %5 = getelementptr inbounds i8, ptr %0, i64 24
  %6 = load ptr, ptr %5, align 8
  %7 = getelementptr inbounds i8, ptr %6, i64 48
  %8 = load ptr, ptr %7, align 8
  call void @llvm.lifetime.start.p0(i64 4, ptr nonnull %3) #19
  store i32 0, ptr %3, align 4, !annotation !48
  %9 = getelementptr inbounds i8, ptr %1, i64 8
  %10 = load ptr, ptr %9, align 8
  call void @llvm.lifetime.start.p0(i64 136, ptr nonnull %4) #19
  call void @llvm.memset.p0.i64(ptr noundef nonnull align 16 dereferenceable(136) %4, i8 0, i64 136, i1 false), !annotation !48
  %11 = getelementptr inbounds i8, ptr %1, i64 80
  %12 = load i64, ptr %11, align 8
  %13 = trunc i64 %12 to i32
  %14 = getelementptr i8, ptr %1, i64 88
  %15 = load i64, ptr %14, align 8
  %16 = trunc i64 %15 to i32
  store i32 %16, ptr %3, align 4
  %17 = tail call i32 @rtnl_is_locked() #19
  %18 = icmp ne i32 %17, 0
  %19 = load i1, ptr @tc_dump_qdisc.__already_done, align 1
  %20 = select i1 %18, i1 true, i1 %19
  br i1 %20, label %22, label %21, !prof !16

21:                                               ; preds = %2
  store i1 true, ptr @tc_dump_qdisc.__already_done, align 1
  tail call void asm sideeffect "893: nop\0A\09.pushsection .discard.instr_begin\0A\09.long 893b - .\0A\09.popsection\0A\09", "i,~{dirflag},~{fpsr},~{flags}"(i32 893) #19, !srcloc !52
  tail call void (ptr, ...) @__warn_printk(ptr noundef nonnull @.str.3, ptr noundef nonnull @.str.1, i32 noundef 1865) #19
  tail call void asm sideeffect "894: nop\0A\09.pushsection .discard.instr_begin\0A\09.long 894b - .\0A\09.popsection\0A\09", "i,~{dirflag},~{fpsr},~{flags}"(i32 894) #19, !srcloc !53
  tail call void asm sideeffect "1:\09.byte 0x0f, 0x0b\0A.pushsection __bug_table,\22aw\22\0A2:\09.long 1b - .\09# bug_entry::bug_addr\0A\09.long ${0:c} - .\09# bug_entry::file\0A\09.word ${1:c}\09# bug_entry::line\0A\09.word ${2:c}\09# bug_entry::flags\0A\09.org 2b+${3:c}\0A.popsection\0A998:\0A\09.pushsection .discard.reachable\0A\09.long 998b\0A\09.popsection\0A\09", "i,i,i,i,~{dirflag},~{fpsr},~{flags}"(ptr nonnull @.str.1, i32 1865, i32 2313, i64 12) #19, !srcloc !54
  tail call void asm sideeffect "895: nop\0A\09.pushsection .discard.instr_end\0A\09.long 895b - .\0A\09.popsection\0A\09", "i,~{dirflag},~{fpsr},~{flags}"(i32 895) #19, !srcloc !55
  tail call void asm sideeffect "896: nop\0A\09.pushsection .discard.instr_end\0A\09.long 896b - .\0A\09.popsection\0A\09", "i,~{dirflag},~{fpsr},~{flags}"(i32 896) #19, !srcloc !56
  br label %22

22:                                               ; preds = %21, %2
  %23 = getelementptr inbounds i8, ptr %1, i64 48
  %24 = load ptr, ptr %23, align 8
  %25 = load i32, ptr %10, align 4
  %26 = icmp ult i32 %25, 36
  br i1 %26, label %27, label %30

27:                                               ; preds = %22
  tail call void @do_trace_netlink_extack(ptr noundef nonnull @__nlmsg_parse.__msg) #19
  %28 = icmp eq ptr %24, null
  br i1 %28, label %34, label %29

29:                                               ; preds = %27
  store ptr @__nlmsg_parse.__msg, ptr %24, align 8
  br label %34

30:                                               ; preds = %22
  %31 = getelementptr i8, ptr %10, i64 36
  %32 = add i32 %25, -36
  %33 = call i32 @__nla_parse(ptr noundef nonnull %4, i32 noundef 16, ptr noundef %31, i32 noundef %32, ptr noundef nonnull @rtm_tca_policy, i32 noundef 0, ptr noundef %24) #19
  br label %34

34:                                               ; preds = %30, %29, %27
  %35 = phi i32 [ %33, %30 ], [ -22, %29 ], [ -22, %27 ]
  %36 = icmp slt i32 %35, 0
  br i1 %36, label %112, label %37

37:                                               ; preds = %34
  %38 = getelementptr inbounds i8, ptr %8, i64 144
  %39 = getelementptr inbounds i8, ptr %4, i64 80
  br label %40

40:                                               ; preds = %101, %37
  %41 = phi ptr [ %38, %37 ], [ %44, %101 ]
  %42 = phi i32 [ %16, %37 ], [ %103, %101 ]
  %43 = phi i32 [ 0, %37 ], [ %104, %101 ]
  %44 = load ptr, ptr %41, align 8
  %45 = icmp eq ptr %44, %38
  br i1 %45, label %105, label %46

46:                                               ; preds = %40
  %47 = icmp slt i32 %43, %13
  br i1 %47, label %98, label %48

48:                                               ; preds = %46
  %49 = icmp sgt i32 %43, %13
  %50 = select i1 %49, i32 0, i32 %42
  store i32 0, ptr %3, align 4
  %51 = getelementptr i8, ptr %44, i64 704
  %52 = load ptr, ptr %51, align 8
  %53 = load ptr, ptr %39, align 16
  %54 = icmp ne ptr %53, null
  %55 = call fastcc i32 @tc_dump_qdisc_root(ptr noundef %52, ptr noundef %0, ptr noundef %1, ptr noundef nonnull %3, i32 noundef %50, i1 noundef zeroext true, i1 noundef zeroext %54), !range !57
  %56 = icmp slt i32 %55, 0
  br i1 %56, label %101, label %57

57:                                               ; preds = %48
  %58 = getelementptr i8, ptr %44, i64 624
  %59 = load ptr, ptr %58, align 8
  %60 = icmp eq ptr %59, null
  br i1 %60, label %98, label %61

61:                                               ; preds = %57
  %62 = getelementptr inbounds i8, ptr %59, i64 16
  %63 = load ptr, ptr %62, align 16
  %64 = load ptr, ptr %39, align 16
  %65 = icmp ne ptr %64, null
  %66 = load i32, ptr %3, align 4
  %67 = icmp eq ptr %63, null
  br i1 %67, label %95, label %68

68:                                               ; preds = %61
  %69 = icmp slt i32 %66, %50
  br i1 %69, label %90, label %70

70:                                               ; preds = %68
  %71 = getelementptr inbounds i8, ptr %63, i64 16
  %72 = load i32, ptr %71, align 16
  %73 = and i32 %72, 1
  %74 = icmp eq i32 %73, 0
  %75 = and i32 %72, 128
  %76 = icmp eq i32 %75, 0
  %77 = or i1 %65, %76
  %78 = and i1 %74, %77
  br i1 %78, label %79, label %90

79:                                               ; preds = %70
  %80 = getelementptr inbounds i8, ptr %63, i64 60
  %81 = load i32, ptr %80, align 4
  %82 = load ptr, ptr %1, align 8
  %83 = getelementptr inbounds i8, ptr %82, i64 52
  %84 = load i32, ptr %83, align 4
  %85 = load ptr, ptr %9, align 8
  %86 = getelementptr inbounds i8, ptr %85, i64 8
  %87 = load i32, ptr %86, align 4
  %88 = call fastcc i32 @tc_fill_qdisc(ptr noundef %0, ptr noundef nonnull %63, i32 noundef %81, i32 noundef %84, i32 noundef %87, i16 noundef zeroext 2, i32 noundef 36, ptr noundef null)
  %89 = icmp slt i32 %88, 1
  br i1 %89, label %92, label %90

90:                                               ; preds = %79, %70, %68
  %91 = add i32 %66, 1
  br label %92

92:                                               ; preds = %90, %79
  %93 = phi i32 [ %91, %90 ], [ %66, %79 ]
  %94 = phi i32 [ 0, %90 ], [ -1, %79 ]
  store i32 %93, ptr %3, align 4
  br label %95

95:                                               ; preds = %92, %61
  %96 = phi i32 [ %94, %92 ], [ 0, %61 ]
  %97 = icmp slt i32 %96, 0
  br i1 %97, label %101, label %98

98:                                               ; preds = %95, %57, %46
  %99 = phi i32 [ %42, %46 ], [ %50, %95 ], [ %50, %57 ]
  %100 = add i32 %43, 1
  br label %101

101:                                              ; preds = %98, %95, %48
  %102 = phi i32 [ 0, %98 ], [ 14, %48 ], [ 14, %95 ]
  %103 = phi i32 [ %99, %98 ], [ %50, %48 ], [ %50, %95 ]
  %104 = phi i32 [ %100, %98 ], [ %43, %48 ], [ %43, %95 ]
  switch i32 %102, label %112 [
    i32 0, label %40
    i32 14, label %105
  ], !llvm.loop !58

105:                                              ; preds = %101, %40
  %106 = phi i32 [ %104, %101 ], [ %43, %40 ]
  %107 = sext i32 %106 to i64
  store i64 %107, ptr %11, align 8
  %108 = load i32, ptr %3, align 4
  %109 = sext i32 %108 to i64
  store i64 %109, ptr %14, align 8
  %110 = getelementptr inbounds i8, ptr %0, i64 112
  %111 = load i32, ptr %110, align 8
  br label %112

112:                                              ; preds = %105, %101, %34
  %113 = phi i32 [ %111, %105 ], [ %35, %34 ], [ undef, %101 ]
  call void @llvm.lifetime.end.p0(i64 136, ptr nonnull %4) #19
  call void @llvm.lifetime.end.p0(i64 4, ptr nonnull %3) #19
  ret i32 %113
}