; Function Attrs: fn_ret_thunk_extern nounwind null_pointer_is_valid
define internal i32 @tc_dump_qdisc(ptr noundef %0, ptr nocapture noundef %1) #0 align 16 {
  %3 = alloca [17 x ptr], align 16
  %4 = getelementptr inbounds i8, ptr %0, i64 24
  %5 = load ptr, ptr %4, align 8
  %6 = getelementptr inbounds i8, ptr %5, i64 48
  %7 = load ptr, ptr %6, align 8
  %8 = getelementptr inbounds i8, ptr %1, i64 8
  %9 = load ptr, ptr %8, align 8
  call void @llvm.lifetime.start.p0(i64 136, ptr nonnull %3) #19
  %10 = getelementptr inbounds i8, ptr %1, i64 80
  %11 = load i64, ptr %10, align 8
  %12 = trunc i64 %11 to i32
  %13 = getelementptr i8, ptr %1, i64 88
  %14 = load i64, ptr %13, align 8
  %15 = trunc i64 %14 to i32
  %16 = tail call i32 @rtnl_is_locked() #19
  %17 = icmp ne i32 %16, 0
  %18 = load i1, ptr @tc_dump_qdisc.__already_done, align 1
  %19 = select i1 %17, i1 true, i1 %18
  br i1 %19, label %21, label %20, !prof !16

20:                                               ; preds = %2
  store i1 true, ptr @tc_dump_qdisc.__already_done, align 1
  tail call void asm sideeffect "893: nop\0A\09.pushsection .discard.instr_begin\0A\09.long 893b - .\0A\09.popsection\0A\09", "i,~{dirflag},~{fpsr},~{flags}"(i32 893) #19, !srcloc !51
  tail call void (ptr, ...) @__warn_printk(ptr noundef nonnull @.str.3, ptr noundef nonnull @.str.1, i32 noundef 1865) #19
  tail call void asm sideeffect "894: nop\0A\09.pushsection .discard.instr_begin\0A\09.long 894b - .\0A\09.popsection\0A\09", "i,~{dirflag},~{fpsr},~{flags}"(i32 894) #19, !srcloc !52
  tail call void asm sideeffect "1:\09.byte 0x0f, 0x0b\0A.pushsection __bug_table,\22aw\22\0A2:\09.long 1b - .\09# bug_entry::bug_addr\0A\09.long ${0:c} - .\09# bug_entry::file\0A\09.word ${1:c}\09# bug_entry::line\0A\09.word ${2:c}\09# bug_entry::flags\0A\09.org 2b+${3:c}\0A.popsection\0A998:\0A\09.pushsection .discard.reachable\0A\09.long 998b\0A\09.popsection\0A\09", "i,i,i,i,~{dirflag},~{fpsr},~{flags}"(ptr nonnull @.str.1, i32 1865, i32 2313, i64 12) #19, !srcloc !53
  tail call void asm sideeffect "895: nop\0A\09.pushsection .discard.instr_end\0A\09.long 895b - .\0A\09.popsection\0A\09", "i,~{dirflag},~{fpsr},~{flags}"(i32 895) #19, !srcloc !54
  tail call void asm sideeffect "896: nop\0A\09.pushsection .discard.instr_end\0A\09.long 896b - .\0A\09.popsection\0A\09", "i,~{dirflag},~{fpsr},~{flags}"(i32 896) #19, !srcloc !55
  br label %21

21:                                               ; preds = %20, %2
  call void @llvm.memset.p0.i64(ptr noundef nonnull align 16 dereferenceable(136) %3, i8 0, i64 136, i1 false), !annotation !48
  %22 = getelementptr inbounds i8, ptr %1, i64 48
  %23 = load ptr, ptr %22, align 8
  %24 = load i32, ptr %9, align 4
  %25 = icmp ult i32 %24, 36
  br i1 %25, label %26, label %29

26:                                               ; preds = %21
  tail call void @do_trace_netlink_extack(ptr noundef nonnull @__nlmsg_parse.__msg) #19
  %27 = icmp eq ptr %23, null
  br i1 %27, label %.thread, label %28

28:                                               ; preds = %26
  store ptr @__nlmsg_parse.__msg, ptr %23, align 8
  br label %.thread

29:                                               ; preds = %21
  %30 = getelementptr i8, ptr %9, i64 36
  %31 = add i32 %24, -36
  %32 = call i32 @__nla_parse(ptr noundef nonnull %3, i32 noundef 16, ptr noundef %30, i32 noundef %31, ptr noundef nonnull @rtm_tca_policy, i32 noundef 0, ptr noundef %23) #19
  %33 = icmp slt i32 %32, 0
  br i1 %33, label %.thread, label %34

34:                                               ; preds = %29
  %35 = getelementptr inbounds i8, ptr %7, i64 144
  %36 = getelementptr inbounds i8, ptr %3, i64 80
  %37 = load ptr, ptr %35, align 8
  %38 = icmp eq ptr %37, %35
  br i1 %38, label %tc_dump_qdisc_root.exit.thread17, label %.lr.ph

.lr.ph:                                           ; preds = %34, %tc_dump_qdisc_root.exit
  %39 = phi ptr [ %157, %tc_dump_qdisc_root.exit ], [ %37, %34 ]
  %40 = phi i32 [ %156, %tc_dump_qdisc_root.exit ], [ 0, %34 ]
  %41 = phi i32 [ %155, %tc_dump_qdisc_root.exit ], [ %15, %34 ]
  %.025 = phi i32 [ %.3, %tc_dump_qdisc_root.exit ], [ %15, %34 ]
  %42 = icmp slt i32 %40, %12
  br i1 %42, label %tc_dump_qdisc_root.exit, label %43

43:                                               ; preds = %.lr.ph
  %44 = icmp sgt i32 %40, %12
  %45 = select i1 %44, i32 0, i32 %41
  %46 = getelementptr i8, ptr %39, i64 704
  %47 = load ptr, ptr %46, align 8
  %48 = load ptr, ptr %36, align 16
  %49 = icmp ne ptr %48, null
  %50 = icmp eq ptr %47, null
  br i1 %50, label %.loopexit, label %51

51:                                               ; preds = %43
  %52 = icmp sgt i32 %45, 0
  br i1 %52, label %73, label %53

53:                                               ; preds = %51
  %54 = getelementptr inbounds i8, ptr %47, i64 16
  %55 = load i32, ptr %54, align 16
  %56 = and i32 %55, 1
  %57 = icmp eq i32 %56, 0
  %58 = and i32 %55, 128
  %59 = icmp eq i32 %58, 0
  %60 = or i1 %49, %59
  %61 = and i1 %57, %60
  br i1 %61, label %62, label %73

62:                                               ; preds = %53
  %63 = getelementptr inbounds i8, ptr %47, i64 60
  %64 = load i32, ptr %63, align 4
  %65 = load ptr, ptr %1, align 8
  %66 = getelementptr inbounds i8, ptr %65, i64 52
  %67 = load i32, ptr %66, align 4
  %68 = load ptr, ptr %8, align 8
  %69 = getelementptr inbounds i8, ptr %68, i64 8
  %70 = load i32, ptr %69, align 4
  %71 = call fastcc i32 @tc_fill_qdisc(ptr noundef %0, ptr noundef nonnull %47, i32 noundef %64, i32 noundef %67, i32 noundef %70, i16 noundef zeroext 2, i32 noundef 36, ptr noundef null)
  %72 = icmp slt i32 %71, 1
  br i1 %72, label %tc_dump_qdisc_root.exit.thread17, label %73

73:                                               ; preds = %62, %53, %51
  %74 = getelementptr inbounds i8, ptr %47, i64 64
  %75 = load ptr, ptr %74, align 64
  %76 = load ptr, ptr %75, align 64
  %.not.i = icmp eq ptr %76, null
  br i1 %.not.i, label %.loopexit, label %.preheader

.preheader:                                       ; preds = %73, %.loopexit6.i
  %77 = phi i64 [ %120, %.loopexit6.i ], [ 0, %73 ]
  %78 = phi i32 [ %119, %.loopexit6.i ], [ 1, %73 ]
  %79 = load ptr, ptr %74, align 64
  %80 = load ptr, ptr %79, align 64
  %81 = getelementptr inbounds i8, ptr %80, i64 1088
  %82 = getelementptr [16 x %struct.hlist_head], ptr %81, i64 0, i64 %77
  %83 = load ptr, ptr %82, align 8
  %84 = icmp eq ptr %83, null
  %85 = getelementptr i8, ptr %83, i64 -40
  %86 = icmp eq ptr %85, null
  %87 = or i1 %84, %86
  br i1 %87, label %.loopexit6.i, label %.preheader.i

.preheader.i:                                     ; preds = %.preheader, %111
  %88 = phi i32 [ %112, %111 ], [ %78, %.preheader ]
  %89 = phi ptr [ %116, %111 ], [ %85, %.preheader ]
  %90 = icmp slt i32 %88, %45
  br i1 %90, label %111, label %91

91:                                               ; preds = %.preheader.i
  %92 = getelementptr inbounds i8, ptr %89, i64 16
  %93 = load i32, ptr %92, align 16
  %94 = and i32 %93, 1
  %95 = icmp eq i32 %94, 0
  %96 = and i32 %93, 128
  %97 = icmp eq i32 %96, 0
  %98 = or i1 %49, %97
  %99 = and i1 %95, %98
  br i1 %99, label %100, label %111

100:                                              ; preds = %91
  %101 = getelementptr inbounds i8, ptr %89, i64 60
  %102 = load i32, ptr %101, align 4
  %103 = load ptr, ptr %1, align 8
  %104 = getelementptr inbounds i8, ptr %103, i64 52
  %105 = load i32, ptr %104, align 4
  %106 = load ptr, ptr %8, align 8
  %107 = getelementptr inbounds i8, ptr %106, i64 8
  %108 = load i32, ptr %107, align 4
  %109 = call fastcc i32 @tc_fill_qdisc(ptr noundef %0, ptr noundef nonnull %89, i32 noundef %102, i32 noundef %105, i32 noundef %108, i16 noundef zeroext 2, i32 noundef 36, ptr noundef null)
  %110 = icmp slt i32 %109, 1
  br i1 %110, label %tc_dump_qdisc_root.exit.thread17, label %111

111:                                              ; preds = %100, %91, %.preheader.i
  %112 = add i32 %88, 1
  %113 = getelementptr inbounds i8, ptr %89, i64 40
  %114 = load ptr, ptr %113, align 8
  %115 = icmp eq ptr %114, null
  %116 = getelementptr i8, ptr %114, i64 -40
  %117 = icmp eq ptr %116, null
  %118 = or i1 %115, %117
  br i1 %118, label %.loopexit6.i, label %.preheader.i, !llvm.loop !56

.loopexit6.i:                                     ; preds = %111, %.preheader
  %119 = phi i32 [ %78, %.preheader ], [ %112, %111 ]
  %120 = add nuw nsw i64 %77, 1
  %121 = icmp eq i64 %120, 16
  br i1 %121, label %.loopexit, label %.preheader, !llvm.loop !57

.loopexit:                                        ; preds = %.loopexit6.i, %43, %73
  %.1.ph = phi i32 [ 1, %73 ], [ 0, %43 ], [ %119, %.loopexit6.i ]
  %122 = getelementptr i8, ptr %39, i64 624
  %123 = load ptr, ptr %122, align 8
  %124 = icmp eq ptr %123, null
  br i1 %124, label %tc_dump_qdisc_root.exit, label %125

125:                                              ; preds = %.loopexit
  %126 = getelementptr inbounds i8, ptr %123, i64 16
  %127 = load ptr, ptr %126, align 16
  %128 = load ptr, ptr %36, align 16
  %129 = icmp ne ptr %128, null
  %130 = icmp eq ptr %127, null
  br i1 %130, label %tc_dump_qdisc_root.exit, label %131

131:                                              ; preds = %125
  %132 = icmp slt i32 %.1.ph, %45
  br i1 %132, label %153, label %133

133:                                              ; preds = %131
  %134 = getelementptr inbounds i8, ptr %127, i64 16
  %135 = load i32, ptr %134, align 16
  %136 = and i32 %135, 1
  %137 = icmp eq i32 %136, 0
  %138 = and i32 %135, 128
  %139 = icmp eq i32 %138, 0
  %140 = or i1 %129, %139
  %141 = and i1 %137, %140
  br i1 %141, label %142, label %153

142:                                              ; preds = %133
  %143 = getelementptr inbounds i8, ptr %127, i64 60
  %144 = load i32, ptr %143, align 4
  %145 = load ptr, ptr %1, align 8
  %146 = getelementptr inbounds i8, ptr %145, i64 52
  %147 = load i32, ptr %146, align 4
  %148 = load ptr, ptr %8, align 8
  %149 = getelementptr inbounds i8, ptr %148, i64 8
  %150 = load i32, ptr %149, align 4
  %151 = call fastcc i32 @tc_fill_qdisc(ptr noundef %0, ptr noundef nonnull %127, i32 noundef %144, i32 noundef %147, i32 noundef %150, i16 noundef zeroext 2, i32 noundef 36, ptr noundef null)
  %152 = icmp slt i32 %151, 1
  br i1 %152, label %tc_dump_qdisc_root.exit.thread17, label %153

153:                                              ; preds = %142, %133, %131
  %154 = add i32 %.1.ph, 1
  br label %tc_dump_qdisc_root.exit

tc_dump_qdisc_root.exit:                          ; preds = %153, %125, %.lr.ph, %.loopexit
  %.3 = phi i32 [ %.025, %.lr.ph ], [ %.1.ph, %.loopexit ], [ %154, %153 ], [ %.1.ph, %125 ]
  %155 = phi i32 [ %41, %.lr.ph ], [ %45, %.loopexit ], [ %45, %153 ], [ %45, %125 ]
  %156 = add i32 %40, 1
  %157 = load ptr, ptr %39, align 8
  %158 = icmp eq ptr %157, %35
  br i1 %158, label %tc_dump_qdisc_root.exit.thread17, label %.lr.ph

tc_dump_qdisc_root.exit.thread17:                 ; preds = %tc_dump_qdisc_root.exit, %62, %142, %100, %34
  %159 = phi i32 [ 0, %34 ], [ %40, %100 ], [ %156, %tc_dump_qdisc_root.exit ], [ %40, %62 ], [ %40, %142 ]
  %.5 = phi i32 [ %15, %34 ], [ %88, %100 ], [ %.3, %tc_dump_qdisc_root.exit ], [ 0, %62 ], [ %.1.ph, %142 ]
  %160 = sext i32 %159 to i64
  store i64 %160, ptr %10, align 8
  %161 = sext i32 %.5 to i64
  store i64 %161, ptr %13, align 8
  %162 = getelementptr inbounds i8, ptr %0, i64 112
  %163 = load i32, ptr %162, align 8
  br label %.thread

.thread:                                          ; preds = %26, %28, %tc_dump_qdisc_root.exit.thread17, %29
  %164 = phi i32 [ %163, %tc_dump_qdisc_root.exit.thread17 ], [ %32, %29 ], [ -22, %28 ], [ -22, %26 ]
  call void @llvm.lifetime.end.p0(i64 136, ptr nonnull %3) #19
  ret i32 %164
}